target datalayout = "e-m:e-p270:32:32-p271:32:32-p272:64:64-i64:64-i128:128-f80:128-n8:16:32:64-S128"
target triple = "x86_64-pc-linux-gnu"

@_ZL7nfp_ffn = internal constant [11 x i32] [i32 0, i32 1, i32 2, i32 3, i32 5, i32 7, i32 9, i32 2, i32 4, i32 3, i32 6], align 16

; Function Attrs: mustprogress nounwind uwtable
define noundef i32 @_Z11effnNparamsi(i32 noundef %0) #0 {
  %2 = alloca i32, align 4
  %3 = alloca i32, align 4
  store i32 %0, ptr %3, align 4, !tbaa !4
  %4 = load i32, ptr %3, align 4, !tbaa !4
  %5 = icmp sle i32 0, %4
  br i1 %5, label %6, label %14

6:                                                ; preds = %1
  %7 = load i32, ptr %3, align 4, !tbaa !4
  %8 = icmp slt i32 %7, 11
  br i1 %8, label %9, label %14

9:                                                ; preds = %6
  %10 = load i32, ptr %3, align 4, !tbaa !4
  %11 = sext i32 %10 to i64
  %12 = getelementptr inbounds [11 x i32], ptr @_ZL7nfp_ffn, i64 0, i64 %11
  %13 = load i32, ptr %12, align 4, !tbaa !4
  store i32 %13, ptr %2, align 4
  br label %15

14:                                               ; preds = %6, %1
  store i32 -1, ptr %2, align 4
  br label %15

15:                                               ; preds = %14, %9
  %16 = load i32, ptr %2, align 4
  ret i32 %16
}