; Function Attrs: mustprogress nofree norecurse nosync nounwind willreturn memory(none) uwtable
define noundef i32 @_Z11effnNparamsi(i32 noundef %0) local_unnamed_addr #0 {
  %or.cond = icmp ult i32 %0, 11
  br i1 %or.cond, label %2, label %6

2:                                                ; preds = %1
  %3 = zext nneg i32 %0 to i64
  %4 = getelementptr inbounds nuw [11 x i32], ptr @_ZL7nfp_ffn, i64 0, i64 %3
  %5 = load i32, ptr %4, align 4, !tbaa !4
  br label %6

6:                                                ; preds = %1, %2
  %.0 = phi i32 [ %5, %2 ], [ -1, %1 ]
  ret i32 %.0
}